; ModuleID = 'source-C-CXX/24/1208.cpp'
source_filename = "source-C-CXX/24/1208.cpp"
target datalayout = "e-m:e-p270:32:32-p271:32:32-p272:64:64-i64:64-f80:128-n8:16:32:64-S128"
target triple = "x86_64-pc-linux-gnu"

%"class.std::ios_base::Init" = type { i8 }
%"class.std::basic_istream" = type { i32 (...)**, i64, %"class.std::basic_ios" }
%"class.std::basic_ios" = type { %"class.std::ios_base", %"class.std::basic_ostream"*, i8, i8, %"class.std::basic_streambuf"*, %"class.std::ctype"*, %"class.std::num_put"*, %"class.std::num_get"* }
%"class.std::ios_base" = type { i32 (...)**, i64, i64, i32, i32, i32, %"struct.std::ios_base::_Callback_list"*, %"struct.std::ios_base::_Words", [8 x %"struct.std::ios_base::_Words"], i32, %"struct.std::ios_base::_Words"*, %"class.std::locale" }
%"struct.std::ios_base::_Callback_list" = type { %"struct.std::ios_base::_Callback_list"*, void (i32, %"class.std::ios_base"*, i32)*, i32, i32 }
%"struct.std::ios_base::_Words" = type { i8*, i64 }
%"class.std::locale" = type { %"class.std::locale::_Impl"* }
%"class.std::locale::_Impl" = type { i32, %"class.std::locale::facet"**, i64, %"class.std::locale::facet"**, i8** }
%"class.std::locale::facet" = type <{ i32 (...)**, i32, [4 x i8] }>
%"class.std::basic_ostream" = type { i32 (...)**, %"class.std::basic_ios" }
%"class.std::basic_streambuf" = type { i32 (...)**, i8*, i8*, i8*, i8*, i8*, i8*, %"class.std::locale" }
%"class.std::ctype" = type <{ %"class.std::locale::facet.base", [4 x i8], %struct.__locale_struct*, i8, [7 x i8], i32*, i32*, i16*, i8, [256 x i8], [256 x i8], i8, [6 x i8] }>
%"class.std::locale::facet.base" = type <{ i32 (...)**, i32 }>
%struct.__locale_struct = type { [13 x %struct.__locale_data*], i16*, i32*, i32*, [13 x i8*] }
%struct.__locale_data = type opaque
%"class.std::num_put" = type { %"class.std::locale::facet.base", [4 x i8] }
%"class.std::num_get" = type { %"class.std::locale::facet.base", [4 x i8] }

@_ZStL8__ioinit = internal global %"class.std::ios_base::Init" zeroinitializer, align 1
@__dso_handle = external hidden global i8
@_ZSt3cin = external global %"class.std::basic_istream", align 8
@_ZSt4cout = external global %"class.std::basic_ostream", align 8
@llvm.global_ctors = appending global [1 x { i32, void ()*, i8* }] [{ i32, void ()*, i8* } { i32 65535, void ()* @_GLOBAL__sub_I_1208.cpp, i8* null }]

declare void @_ZNSt8ios_base4InitC1Ev(%"class.std::ios_base::Init"* nonnull align 1 dereferenceable(1)) unnamed_addr #0

; Function Attrs: nounwind
declare void @_ZNSt8ios_base4InitD1Ev(%"class.std::ios_base::Init"* nonnull align 1 dereferenceable(1)) unnamed_addr #1

; Function Attrs: nofree nounwind
declare i32 @__cxa_atexit(void (i8*)*, i8*, i8*) local_unnamed_addr #2

; Function Attrs: mustprogress norecurse sspstrong uwtable
define dso_local i32 @main() local_unnamed_addr #3 {
  %1 = alloca i32, align 4
  %2 = alloca [32 x i32], align 16
  %3 = bitcast i32* %1 to i8*
  call void @llvm.lifetime.start.p0i8(i64 4, i8* nonnull %3) #7
  %4 = call nonnull align 8 dereferenceable(16) %"class.std::basic_istream"* @_ZNSirsERi(%"class.std::basic_istream"* nonnull align 8 dereferenceable(16) @_ZSt3cin, i32* nonnull align 4 dereferenceable(4) %1)
  %5 = bitcast [32 x i32]* %2 to i8*
  call void @llvm.lifetime.start.p0i8(i64 128, i8* nonnull %5) #7
  call void @llvm.memset.p0i8.i64(i8* noundef nonnull align 16 dereferenceable(128) %5, i8 0, i64 128, i1 false)
  %6 = getelementptr inbounds [32 x i32], [32 x i32]* %2, i64 0, i64 1
  store i32 1, i32* %6, align 4, !tbaa !5
  %7 = load i32, i32* %1, align 4, !tbaa !5
  %8 = icmp slt i32 %7, 1
  br i1 %8, label %77, label %9

9:                                                ; preds = %0, %93
  %10 = phi i32 [ %100, %93 ], [ 1, %0 ]
  %11 = phi i32 [ %99, %93 ], [ 1, %0 ]
  %12 = icmp slt i32 %11, 1
  br i1 %12, label %81, label %13

13:                                               ; preds = %9
  %14 = add nuw i32 %11, 1
  %15 = zext i32 %14 to i64
  %16 = add nsw i64 %15, -1
  %17 = icmp ult i64 %16, 8
  br i1 %17, label %73, label %18

18:                                               ; preds = %13
  %19 = and i64 %16, -8
  %20 = or i64 %19, 1
  %21 = add nsw i64 %19, -8
  %22 = lshr exact i64 %21, 3
  %23 = add nuw nsw i64 %22, 1
  %24 = and i64 %23, 1
  %25 = icmp eq i64 %21, 0
  br i1 %25, label %56, label %26

26:                                               ; preds = %18
  %27 = and i64 %23, 4611686018427387902
  br label %28

28:                                               ; preds = %28, %26
  %29 = phi i64 [ 0, %26 ], [ %53, %28 ]
  %30 = phi i64 [ %27, %26 ], [ %54, %28 ]
  %31 = or i64 %29, 1
  %32 = getelementptr inbounds [32 x i32], [32 x i32]* %2, i64 0, i64 %31
  %33 = bitcast i32* %32 to <4 x i32>*
  %34 = load <4 x i32>, <4 x i32>* %33, align 4, !tbaa !5
  %35 = getelementptr inbounds i32, i32* %32, i64 4
  %36 = bitcast i32* %35 to <4 x i32>*
  %37 = load <4 x i32>, <4 x i32>* %36, align 4, !tbaa !5
  %38 = shl nsw <4 x i32> %34, <i32 1, i32 1, i32 1, i32 1>
  %39 = shl nsw <4 x i32> %37, <i32 1, i32 1, i32 1, i32 1>
  %40 = bitcast i32* %32 to <4 x i32>*
  store <4 x i32> %38, <4 x i32>* %40, align 4, !tbaa !5
  %41 = bitcast i32* %35 to <4 x i32>*
  store <4 x i32> %39, <4 x i32>* %41, align 4, !tbaa !5
  %42 = or i64 %29, 9
  %43 = getelementptr inbounds [32 x i32], [32 x i32]* %2, i64 0, i64 %42
  %44 = bitcast i32* %43 to <4 x i32>*
  %45 = load <4 x i32>, <4 x i32>* %44, align 4, !tbaa !5
  %46 = getelementptr inbounds i32, i32* %43, i64 4
  %47 = bitcast i32* %46 to <4 x i32>*
  %48 = load <4 x i32>, <4 x i32>* %47, align 4, !tbaa !5
  %49 = shl nsw <4 x i32> %45, <i32 1, i32 1, i32 1, i32 1>
  %50 = shl nsw <4 x i32> %48, <i32 1, i32 1, i32 1, i32 1>
  %51 = bitcast i32* %43 to <4 x i32>*
  store <4 x i32> %49, <4 x i32>* %51, align 4, !tbaa !5
  %52 = bitcast i32* %46 to <4 x i32>*
  store <4 x i32> %50, <4 x i32>* %52, align 4, !tbaa !5
  %53 = add nuw i64 %29, 16
  %54 = add i64 %30, -2
  %55 = icmp eq i64 %54, 0
  br i1 %55, label %56, label %28, !llvm.loop !9

56:                                               ; preds = %28, %18
  %57 = phi i64 [ 0, %18 ], [ %53, %28 ]
  %58 = icmp eq i64 %24, 0
  br i1 %58, label %71, label %59

59:                                               ; preds = %56
  %60 = or i64 %57, 1
  %61 = getelementptr inbounds [32 x i32], [32 x i32]* %2, i64 0, i64 %60
  %62 = bitcast i32* %61 to <4 x i32>*
  %63 = load <4 x i32>, <4 x i32>* %62, align 4, !tbaa !5
  %64 = getelementptr inbounds i32, i32* %61, i64 4
  %65 = bitcast i32* %64 to <4 x i32>*
  %66 = load <4 x i32>, <4 x i32>* %65, align 4, !tbaa !5
  %67 = shl nsw <4 x i32> %63, <i32 1, i32 1, i32 1, i32 1>
  %68 = shl nsw <4 x i32> %66, <i32 1, i32 1, i32 1, i32 1>
  %69 = bitcast i32* %61 to <4 x i32>*
  store <4 x i32> %67, <4 x i32>* %69, align 4, !tbaa !5
  %70 = bitcast i32* %64 to <4 x i32>*
  store <4 x i32> %68, <4 x i32>* %70, align 4, !tbaa !5
  br label %71

71:                                               ; preds = %56, %59
  %72 = icmp eq i64 %16, %19
  br i1 %72, label %80, label %73

73:                                               ; preds = %13, %71
  %74 = phi i64 [ 1, %13 ], [ %20, %71 ]
  br label %86

75:                                               ; preds = %93
  %76 = icmp sgt i32 %99, 0
  br i1 %76, label %77, label %118

77:                                               ; preds = %0, %75
  %78 = phi i32 [ %99, %75 ], [ 1, %0 ]
  %79 = zext i32 %78 to i64
  br label %121

80:                                               ; preds = %86, %71
  br i1 %12, label %81, label %83

81:                                               ; preds = %9, %80
  %82 = add nsw i32 %11, 1
  br label %93

83:                                               ; preds = %80
  %84 = add nuw i32 %11, 1
  %85 = zext i32 %84 to i64
  br label %102

86:                                               ; preds = %73, %86
  %87 = phi i64 [ %91, %86 ], [ %74, %73 ]
  %88 = getelementptr inbounds [32 x i32], [32 x i32]* %2, i64 0, i64 %87
  %89 = load i32, i32* %88, align 4, !tbaa !5
  %90 = shl nsw i32 %89, 1
  store i32 %90, i32* %88, align 4, !tbaa !5
  %91 = add nuw nsw i64 %87, 1
  %92 = icmp eq i64 %91, %15
  br i1 %92, label %80, label %86, !llvm.loop !12

93:                                               ; preds = %115, %81
  %94 = phi i32 [ %82, %81 ], [ %84, %115 ]
  %95 = sext i32 %94 to i64
  %96 = getelementptr inbounds [32 x i32], [32 x i32]* %2, i64 0, i64 %95
  %97 = load i32, i32* %96, align 4, !tbaa !5
  %98 = icmp eq i32 %97, 0
  %99 = select i1 %98, i32 %11, i32 %94
  %100 = add nuw i32 %10, 1
  %101 = icmp eq i32 %10, %7
  br i1 %101, label %75, label %9, !llvm.loop !14

102:                                              ; preds = %83, %115
  %103 = phi i64 [ 1, %83 ], [ %116, %115 ]
  %104 = getelementptr inbounds [32 x i32], [32 x i32]* %2, i64 0, i64 %103
  %105 = load i32, i32* %104, align 4, !tbaa !5
  %106 = icmp sgt i32 %105, 9
  br i1 %106, label %109, label %107

107:                                              ; preds = %102
  %108 = add nuw nsw i64 %103, 1
  br label %115

109:                                              ; preds = %102
  %110 = add nsw i32 %105, -10
  store i32 %110, i32* %104, align 4, !tbaa !5
  %111 = add nuw nsw i64 %103, 1
  %112 = getelementptr inbounds [32 x i32], [32 x i32]* %2, i64 0, i64 %111
  %113 = load i32, i32* %112, align 4, !tbaa !5
  %114 = add nsw i32 %113, 1
  store i32 %114, i32* %112, align 4, !tbaa !5
  br label %115

115:                                              ; preds = %107, %109
  %116 = phi i64 [ %108, %107 ], [ %111, %109 ]
  %117 = icmp eq i64 %116, %85
  br i1 %117, label %93, label %102, !llvm.loop !15

118:                                              ; preds = %121, %75
  %119 = call i32 @_ZNSi3getEv(%"class.std::basic_istream"* nonnull align 8 dereferenceable(16) @_ZSt3cin)
  %120 = call i32 @_ZNSi3getEv(%"class.std::basic_istream"* nonnull align 8 dereferenceable(16) @_ZSt3cin)
  call void @llvm.lifetime.end.p0i8(i64 128, i8* nonnull %5) #7
  call void @llvm.lifetime.end.p0i8(i64 4, i8* nonnull %3) #7
  ret i32 0

121:                                              ; preds = %77, %121
  %122 = phi i64 [ %79, %77 ], [ %127, %121 ]
  %123 = getelementptr inbounds [32 x i32], [32 x i32]* %2, i64 0, i64 %122
  %124 = load i32, i32* %123, align 4, !tbaa !5
  %125 = call nonnull align 8 dereferenceable(8) %"class.std::basic_ostream"* @_ZNSolsEi(%"class.std::basic_ostream"* nonnull align 8 dereferenceable(8) @_ZSt4cout, i32 %124)
  %126 = icmp sgt i64 %122, 1
  %127 = add nsw i64 %122, -1
  br i1 %126, label %121, label %118, !llvm.loop !16
}

; Function Attrs: argmemonly mustprogress nofree nosync nounwind willreturn
declare void @llvm.lifetime.start.p0i8(i64 immarg, i8* nocapture) #4

declare nonnull align 8 dereferenceable(16) %"class.std::basic_istream"* @_ZNSirsERi(%"class.std::basic_istream"* nonnull align 8 dereferenceable(16), i32* nonnull align 4 dereferenceable(4)) local_unnamed_addr #0

; Function Attrs: argmemonly mustprogress nofree nounwind willreturn writeonly
declare void @llvm.memset.p0i8.i64(i8* nocapture writeonly, i8, i64, i1 immarg) #5

; Function Attrs: argmemonly mustprogress nofree nosync nounwind willreturn
declare void @llvm.lifetime.end.p0i8(i64 immarg, i8* nocapture) #4

declare nonnull align 8 dereferenceable(8) %"class.std::basic_ostream"* @_ZNSolsEi(%"class.std::basic_ostream"* nonnull align 8 dereferenceable(8), i32) local_unnamed_addr #0

declare i32 @_ZNSi3getEv(%"class.std::basic_istream"* nonnull align 8 dereferenceable(16)) local_unnamed_addr #0

; Function Attrs: sspstrong uwtable
define internal void @_GLOBAL__sub_I_1208.cpp() #6 section ".text.startup" {
  tail call void @_ZNSt8ios_base4InitC1Ev(%"class.std::ios_base::Init"* nonnull align 1 dereferenceable(1) @_ZStL8__ioinit)
  %1 = tail call i32 @__cxa_atexit(void (i8*)* bitcast (void (%"class.std::ios_base::Init"*)* @_ZNSt8ios_base4InitD1Ev to void (i8*)*), i8* getelementptr inbounds (%"class.std::ios_base::Init", %"class.std::ios_base::Init"* @_ZStL8__ioinit, i64 0, i32 0), i8* nonnull @__dso_handle) #7
  ret void
}


!llvm.module.flags = !{!0, !1, !2, !3}
!llvm.ident = !{!4}

!0 = !{i32 1, !"wchar_size", i32 4}
!1 = !{i32 7, !"PIC Level", i32 2}
!2 = !{i32 7, !"PIE Level", i32 2}
!3 = !{i32 7, !"uwtable", i32 1}
!4 = !{!"clang version 13.0.0"}
!5 = !{!6, !6, i64 0}
!6 = !{!"int", !7, i64 0}
!7 = !{!"omnipotent char", !8, i64 0}
!8 = !{!"Simple C++ TBAA"}
!9 = distinct !{!9, !10, !11}
!10 = !{!"llvm.loop.mustprogress"}
!11 = !{!"llvm.loop.isvectorized", i32 1}
!12 = distinct !{!12, !10, !13, !11}
!13 = !{!"llvm.loop.unroll.runtime.disable"}
!14 = distinct !{!14, !10}
!15 = distinct !{!15, !10}
!16 = distinct !{!16, !10}
